target datalayout = "e-m:e-p270:32:32-p271:32:32-p272:64:64-i64:64-i128:128-f80:128-n8:16:32:64-S128"
target triple = "x86_64-pc-linux-gnu"

@.str.15 = private unnamed_addr constant [69 x i8] c"\0AidaFoodWeb_kry: Predator-prey DAE serial example problem for IDA \0A\0A\00", align 1
@.str.16 = private unnamed_addr constant [25 x i8] c"Number of species ns: %d\00", align 1
@.str.17 = private unnamed_addr constant [30 x i8] c"     Mesh dimensions: %d x %d\00", align 1
@.str.18 = private unnamed_addr constant [22 x i8] c"     System size: %d\0A\00", align 1
@.str.19 = private unnamed_addr constant [46 x i8] c"Tolerance parameters:  rtol = %g   atol = %g\0A\00", align 1
@.str.20 = private unnamed_addr constant [51 x i8] c"Linear solver: SPGMR,  SPGMR parameters maxl = %d\0A\00", align 1
@.str.21 = private unnamed_addr constant [60 x i8] c"CalcIC called to correct initial predator concentrations.\0A\0A\00", align 1
@.str.22 = private unnamed_addr constant [61 x i8] c"-----------------------------------------------------------\0A\00", align 1
@.str.23 = private unnamed_addr constant [34 x i8] c"  t        bottom-left  top-right\00", align 1
@.str.24 = private unnamed_addr constant [21 x i8] c"    | nst  k      h\0A\00", align 1
@.str.25 = private unnamed_addr constant [62 x i8] c"-----------------------------------------------------------\0A\0A\00", align 1

; Function Attrs: nounwind uwtable
define internal void @PrintHeader(i32 noundef %0, double noundef %1, double noundef %2) #0 {
  %4 = alloca i32, align 4
  %5 = alloca double, align 8
  %6 = alloca double, align 8
  store i32 %0, ptr %4, align 4, !tbaa !12
  store double %1, ptr %5, align 8, !tbaa !26
  store double %2, ptr %6, align 8, !tbaa !26
  %7 = call i32 (ptr, ...) @printf(ptr noundef @.str.15)
  %8 = call i32 (ptr, ...) @printf(ptr noundef @.str.16, i32 noundef 2)
  %9 = call i32 (ptr, ...) @printf(ptr noundef @.str.17, i32 noundef 20, i32 noundef 20)
  %10 = call i32 (ptr, ...) @printf(ptr noundef @.str.18, i32 noundef 800)
  %11 = load double, ptr %5, align 8, !tbaa !26
  %12 = load double, ptr %6, align 8, !tbaa !26
  %13 = call i32 (ptr, ...) @printf(ptr noundef @.str.19, double noundef %11, double noundef %12)
  %14 = load i32, ptr %4, align 4, !tbaa !12
  %15 = call i32 (ptr, ...) @printf(ptr noundef @.str.20, i32 noundef %14)
  %16 = call i32 (ptr, ...) @printf(ptr noundef @.str.21)
  %17 = call i32 (ptr, ...) @printf(ptr noundef @.str.22)
  %18 = call i32 (ptr, ...) @printf(ptr noundef @.str.23)
  %19 = call i32 (ptr, ...) @printf(ptr noundef @.str.24)
  %20 = call i32 (ptr, ...) @printf(ptr noundef @.str.25)
  ret void
}