; Function Attrs: nofree nounwind uwtable
define internal fastcc void @PrintHeader() unnamed_addr #4 {
  %puts = tail call i32 @puts(ptr nonnull dereferenceable(1) @str)
  %1 = tail call i32 (ptr, ...) @printf(ptr noundef nonnull dereferenceable(1) @.str.16, i32 noundef 2)
  %2 = tail call i32 (ptr, ...) @printf(ptr noundef nonnull dereferenceable(1) @.str.17, i32 noundef 20, i32 noundef 20)
  %3 = tail call i32 (ptr, ...) @printf(ptr noundef nonnull dereferenceable(1) @.str.18, i32 noundef 800)
  %4 = tail call i32 (ptr, ...) @printf(ptr noundef nonnull dereferenceable(1) @.str.19, double noundef 1.000000e-05, double noundef 1.000000e-05)
  %5 = tail call i32 (ptr, ...) @printf(ptr noundef nonnull dereferenceable(1) @.str.20, i32 noundef 16)
  %puts2 = tail call i32 @puts(ptr nonnull dereferenceable(1) @str.1)
  %puts3 = tail call i32 @puts(ptr nonnull dereferenceable(1) @str.5)
  %6 = tail call i32 (ptr, ...) @printf(ptr noundef nonnull dereferenceable(1) @.str.23)
  %puts4 = tail call i32 @puts(ptr nonnull dereferenceable(1) @str.3)
  %puts5 = tail call i32 @puts(ptr nonnull dereferenceable(1) @str.4)
  ret void
}